; Function Attrs: nounwind uwtable
define void @ossl_ec_GFp_simple_point_finish(ptr noundef readonly captures(none) %0) #1 {
  %2 = getelementptr inbounds nuw i8, ptr %0, i64 16
  %3 = load ptr, ptr %2, align 8, !tbaa !24
  tail call void @BN_free(ptr noundef %3) #4
  %4 = getelementptr inbounds nuw i8, ptr %0, i64 24
  %5 = load ptr, ptr %4, align 8, !tbaa !26
  tail call void @BN_free(ptr noundef %5) #4
  %6 = getelementptr inbounds nuw i8, ptr %0, i64 32
  %7 = load ptr, ptr %6, align 8, !tbaa !27
  tail call void @BN_free(ptr noundef %7) #4
  ret void
}